target datalayout = "e-m:e-p270:32:32-p271:32:32-p272:64:64-i64:64-i128:128-f80:128-n8:16:32:64-S128"
target triple = "x86_64-pc-linux-gnu"

%"class.base::Time" = type { %"class.base::time_internal::TimeBase" }
%"class.base::time_internal::TimeBase" = type { i64 }
%struct.tm = type { i32, i32, i32, i32, i32, i32, i32, i32, i32, i64, ptr }
%"struct.base::Time::Exploded" = type { i32, i32, i32, i32, i32, i32, i32, i32 }

; Function Attrs: mustprogress nounwind uwtable
define linkonce_odr void @_ZN4base13time_internal8TimeBaseINS_4TimeEEC2El(ptr noundef nonnull align 8 dereferenceable(8) %0, i64 noundef %1) unnamed_addr #5 comdat align 2 {
  %3 = alloca ptr, align 8
  %4 = alloca i64, align 8
  store ptr %0, ptr %3, align 8, !tbaa !76
  store i64 %1, ptr %4, align 8, !tbaa !8
  %5 = load ptr, ptr %3, align 8
  %6 = getelementptr inbounds nuw %"class.base::time_internal::TimeBase", ptr %5, i32 0, i32 0
  %7 = load i64, ptr %4, align 8, !tbaa !8
  store i64 %7, ptr %6, align 8, !tbaa !32
  ret void
}

; Function Attrs: mustprogress uwtable
define linkonce_odr void @_ZNK4base4Time12LocalExplodeEPNS0_8ExplodedE(ptr noundef nonnull align 8 dereferenceable(8) %0, ptr noundef %1) #0 comdat align 2 {
  %3 = alloca ptr, align 8
  %4 = alloca ptr, align 8
  store ptr %0, ptr %3, align 8, !tbaa !26
  store ptr %1, ptr %4, align 8, !tbaa !30
  %5 = load ptr, ptr %3, align 8
  %6 = load ptr, ptr %4, align 8, !tbaa !30
  call void @_ZNK4base4Time7ExplodeEbPNS0_8ExplodedE(ptr noundef nonnull align 8 dereferenceable(8) %5, i1 noundef zeroext true, ptr noundef %6)
  ret void
}

; Function Attrs: mustprogress uwtable
define linkonce_odr void @_ZNK4base4Time10UTCExplodeEPNS0_8ExplodedE(ptr noundef nonnull align 8 dereferenceable(8) %0, ptr noundef %1) #0 comdat align 2 {
  %3 = alloca ptr, align 8
  %4 = alloca ptr, align 8
  store ptr %0, ptr %3, align 8, !tbaa !26
  store ptr %1, ptr %4, align 8, !tbaa !30
  %5 = load ptr, ptr %3, align 8
  %6 = load ptr, ptr %4, align 8, !tbaa !30
  call void @_ZNK4base4Time7ExplodeEbPNS0_8ExplodedE(ptr noundef nonnull align 8 dereferenceable(8) %5, i1 noundef zeroext false, ptr noundef %6)
  ret void
}

; Function Attrs: mustprogress nounwind uwtable
define linkonce_odr void @_ZN4base4TimeC2El(ptr noundef nonnull align 8 dereferenceable(8) %0, i64 noundef %1) unnamed_addr #5 comdat align 2 {
  %3 = alloca ptr, align 8
  %4 = alloca i64, align 8
  store ptr %0, ptr %3, align 8, !tbaa !26
  store i64 %1, ptr %4, align 8, !tbaa !8
  %5 = load ptr, ptr %3, align 8
  %6 = load i64, ptr %4, align 8, !tbaa !8
  call void @_ZN4base13time_internal8TimeBaseINS_4TimeEEC2El(ptr noundef nonnull align 8 dereferenceable(8) %5, i64 noundef %6)
  ret void
}

; Function Attrs: inlinehint mustprogress nounwind uwtable
define linkonce_odr noundef nonnull align 8 dereferenceable(8) ptr @_ZSt3minIlERKT_S2_S2_(ptr noundef nonnull align 8 dereferenceable(8) %0, ptr noundef nonnull align 8 dereferenceable(8) %1) #8 comdat {
  %3 = alloca ptr, align 8
  %4 = alloca ptr, align 8
  %5 = alloca ptr, align 8
  store ptr %0, ptr %4, align 8, !tbaa !62
  store ptr %1, ptr %5, align 8, !tbaa !62
  %6 = load ptr, ptr %5, align 8, !tbaa !62
  %7 = load i64, ptr %6, align 8, !tbaa !8
  %8 = load ptr, ptr %4, align 8, !tbaa !62
  %9 = load i64, ptr %8, align 8, !tbaa !8
  %10 = icmp slt i64 %7, %9
  br i1 %10, label %11, label %13

11:                                               ; preds = %2
  %12 = load ptr, ptr %5, align 8, !tbaa !62
  store ptr %12, ptr %3, align 8
  br label %15

13:                                               ; preds = %2
  %14 = load ptr, ptr %4, align 8, !tbaa !62
  store ptr %14, ptr %3, align 8
  br label %15

15:                                               ; preds = %13, %11
  %16 = load ptr, ptr %3, align 8
  ret ptr %16
}

; Function Attrs: mustprogress uwtable
define noundef zeroext i1 @_ZN4base4Time12FromExplodedEbRKNS0_8ExplodedEPS0_(i1 noundef zeroext %0, ptr noundef nonnull align 4 dereferenceable(32) %1, ptr noundef %2) #0 align 2 {
  %4 = alloca i1, align 1
  %5 = alloca i8, align 1
  %6 = alloca ptr, align 8
  %7 = alloca ptr, align 8
  %8 = alloca %struct.tm, align 8
  %9 = alloca i64, align 8
  %10 = alloca i64, align 8
  %11 = alloca %struct.tm, align 8
  %12 = alloca i64, align 8
  %13 = alloca i64, align 8
  %14 = alloca i64, align 8
  %15 = alloca i64, align 8
  %16 = alloca %"class.base::Time", align 8
  %17 = alloca %"struct.base::Time::Exploded", align 4
  %18 = alloca i32, align 4
  %19 = alloca %"class.base::Time", align 8
  %20 = zext i1 %0 to i8
  store i8 %20, ptr %5, align 1, !tbaa !28
  store ptr %1, ptr %6, align 8, !tbaa !30
  store ptr %2, ptr %7, align 8, !tbaa !26
  call void @llvm.lifetime.start.p0(i64 56, ptr %8) #11
  %21 = load ptr, ptr %6, align 8, !tbaa !30
  %22 = getelementptr inbounds nuw %"struct.base::Time::Exploded", ptr %21, i32 0, i32 6
  %23 = load i32, ptr %22, align 4, !tbaa !53
  %24 = getelementptr inbounds nuw %struct.tm, ptr %8, i32 0, i32 0
  store i32 %23, ptr %24, align 8, !tbaa !52
  %25 = load ptr, ptr %6, align 8, !tbaa !30
  %26 = getelementptr inbounds nuw %"struct.base::Time::Exploded", ptr %25, i32 0, i32 5
  %27 = load i32, ptr %26, align 4, !tbaa !51
  %28 = getelementptr inbounds nuw %struct.tm, ptr %8, i32 0, i32 1
  store i32 %27, ptr %28, align 4, !tbaa !50
  %29 = load ptr, ptr %6, align 8, !tbaa !30
  %30 = getelementptr inbounds nuw %"struct.base::Time::Exploded", ptr %29, i32 0, i32 4
  %31 = load i32, ptr %30, align 4, !tbaa !49
  %32 = getelementptr inbounds nuw %struct.tm, ptr %8, i32 0, i32 2
  store i32 %31, ptr %32, align 8, !tbaa !48
  %33 = load ptr, ptr %6, align 8, !tbaa !30
  %34 = getelementptr inbounds nuw %"struct.base::Time::Exploded", ptr %33, i32 0, i32 3
  %35 = load i32, ptr %34, align 4, !tbaa !47
  %36 = getelementptr inbounds nuw %struct.tm, ptr %8, i32 0, i32 3
  store i32 %35, ptr %36, align 4, !tbaa !46
  %37 = load ptr, ptr %6, align 8, !tbaa !30
  %38 = getelementptr inbounds nuw %"struct.base::Time::Exploded", ptr %37, i32 0, i32 1
  %39 = load i32, ptr %38, align 4, !tbaa !43
  %40 = sub nsw i32 %39, 1
  %41 = getelementptr inbounds nuw %struct.tm, ptr %8, i32 0, i32 4
  store i32 %40, ptr %41, align 8, !tbaa !42
  %42 = load ptr, ptr %6, align 8, !tbaa !30
  %43 = getelementptr inbounds nuw %"struct.base::Time::Exploded", ptr %42, i32 0, i32 0
  %44 = load i32, ptr %43, align 4, !tbaa !40
  %45 = sub nsw i32 %44, 1900
  %46 = getelementptr inbounds nuw %struct.tm, ptr %8, i32 0, i32 5
  store i32 %45, ptr %46, align 4, !tbaa !38
  %47 = load ptr, ptr %6, align 8, !tbaa !30
  %48 = getelementptr inbounds nuw %"struct.base::Time::Exploded", ptr %47, i32 0, i32 2
  %49 = load i32, ptr %48, align 4, !tbaa !45
  %50 = getelementptr inbounds nuw %struct.tm, ptr %8, i32 0, i32 6
  store i32 %49, ptr %50, align 8, !tbaa !44
  %51 = getelementptr inbounds nuw %struct.tm, ptr %8, i32 0, i32 7
  store i32 0, ptr %51, align 4, !tbaa !57
  %52 = getelementptr inbounds nuw %struct.tm, ptr %8, i32 0, i32 8
  store i32 -1, ptr %52, align 8, !tbaa !58
  %53 = getelementptr inbounds nuw %struct.tm, ptr %8, i32 0, i32 9
  store i64 0, ptr %53, align 8, !tbaa !59
  %54 = getelementptr inbounds nuw %struct.tm, ptr %8, i32 0, i32 10
  store ptr null, ptr %54, align 8, !tbaa !60
  call void @llvm.lifetime.start.p0(i64 8, ptr %9) #11
  call void @llvm.lifetime.start.p0(i64 8, ptr %10) #11
  call void @llvm.lifetime.start.p0(i64 56, ptr %11) #11
  call void @llvm.memcpy.p0.p0.i64(ptr align 8 %11, ptr align 8 %8, i64 56, i1 false), !tbaa.struct !61
  %55 = load i8, ptr %5, align 1, !tbaa !28, !range !36, !noundef !37
  %56 = trunc i8 %55 to i1
  %57 = call noundef i64 @_ZN12_GLOBAL__N_121SysTimeFromTimeStructEP2tmb(ptr noundef %8, i1 noundef zeroext %56)
  store i64 %57, ptr %10, align 8, !tbaa !8
  %58 = load i64, ptr %10, align 8, !tbaa !8
  %59 = icmp eq i64 %58, -1
  br i1 %59, label %60, label %83

60:                                               ; preds = %3
  call void @llvm.memcpy.p0.p0.i64(ptr align 8 %8, ptr align 8 %11, i64 56, i1 false), !tbaa.struct !61
  %61 = getelementptr inbounds nuw %struct.tm, ptr %8, i32 0, i32 8
  store i32 0, ptr %61, align 8, !tbaa !58
  call void @llvm.lifetime.start.p0(i64 8, ptr %12) #11
  %62 = load i8, ptr %5, align 1, !tbaa !28, !range !36, !noundef !37
  %63 = trunc i8 %62 to i1
  %64 = call noundef i64 @_ZN12_GLOBAL__N_121SysTimeFromTimeStructEP2tmb(ptr noundef %8, i1 noundef zeroext %63)
  store i64 %64, ptr %12, align 8, !tbaa !8
  call void @llvm.memcpy.p0.p0.i64(ptr align 8 %8, ptr align 8 %11, i64 56, i1 false), !tbaa.struct !61
  %65 = getelementptr inbounds nuw %struct.tm, ptr %8, i32 0, i32 8
  store i32 1, ptr %65, align 8, !tbaa !58
  call void @llvm.lifetime.start.p0(i64 8, ptr %13) #11
  %66 = load i8, ptr %5, align 1, !tbaa !28, !range !36, !noundef !37
  %67 = trunc i8 %66 to i1
  %68 = call noundef i64 @_ZN12_GLOBAL__N_121SysTimeFromTimeStructEP2tmb(ptr noundef %8, i1 noundef zeroext %67)
  store i64 %68, ptr %13, align 8, !tbaa !8
  %69 = load i64, ptr %12, align 8, !tbaa !8
  %70 = icmp slt i64 %69, 0
  br i1 %70, label %71, label %73

71:                                               ; preds = %60
  %72 = load i64, ptr %13, align 8, !tbaa !8
  store i64 %72, ptr %10, align 8, !tbaa !8
  br label %82

73:                                               ; preds = %60
  %74 = load i64, ptr %13, align 8, !tbaa !8
  %75 = icmp slt i64 %74, 0
  br i1 %75, label %76, label %78

76:                                               ; preds = %73
  %77 = load i64, ptr %12, align 8, !tbaa !8
  store i64 %77, ptr %10, align 8, !tbaa !8
  br label %81

78:                                               ; preds = %73
  %79 = call noundef nonnull align 8 dereferenceable(8) ptr @_ZSt3minIlERKT_S2_S2_(ptr noundef nonnull align 8 dereferenceable(8) %12, ptr noundef nonnull align 8 dereferenceable(8) %13)
  %80 = load i64, ptr %79, align 8, !tbaa !8
  store i64 %80, ptr %10, align 8, !tbaa !8
  br label %81

81:                                               ; preds = %78, %76
  br label %82

82:                                               ; preds = %81, %71
  call void @llvm.lifetime.end.p0(i64 8, ptr %13) #11
  call void @llvm.lifetime.end.p0(i64 8, ptr %12) #11
  br label %83

83:                                               ; preds = %82, %3
  %84 = load i64, ptr %10, align 8, !tbaa !8
  %85 = icmp eq i64 %84, -1
  br i1 %85, label %86, label %106

86:                                               ; preds = %83
  %87 = load ptr, ptr %6, align 8, !tbaa !30
  %88 = getelementptr inbounds nuw %"struct.base::Time::Exploded", ptr %87, i32 0, i32 0
  %89 = load i32, ptr %88, align 4, !tbaa !40
  %90 = icmp slt i32 %89, 1969
  br i1 %90, label %96, label %91

91:                                               ; preds = %86
  %92 = load ptr, ptr %6, align 8, !tbaa !30
  %93 = getelementptr inbounds nuw %"struct.base::Time::Exploded", ptr %92, i32 0, i32 0
  %94 = load i32, ptr %93, align 4, !tbaa !40
  %95 = icmp sgt i32 %94, 1970
  br i1 %95, label %96, label %106

96:                                               ; preds = %91, %86
  call void @llvm.lifetime.start.p0(i64 8, ptr %14) #11
  store i64 -2147483648, ptr %14, align 8, !tbaa !8
  call void @llvm.lifetime.start.p0(i64 8, ptr %15) #11
  store i64 2147483647, ptr %15, align 8, !tbaa !8
  %97 = load ptr, ptr %6, align 8, !tbaa !30
  %98 = getelementptr inbounds nuw %"struct.base::Time::Exploded", ptr %97, i32 0, i32 0
  %99 = load i32, ptr %98, align 4, !tbaa !40
  %100 = icmp slt i32 %99, 1969
  br i1 %100, label %101, label %102

101:                                              ; preds = %96
  store i64 -2147483648000, ptr %9, align 8, !tbaa !8
  br label %105

102:                                              ; preds = %96
  store i64 2147483647000, ptr %9, align 8, !tbaa !8
  %103 = load i64, ptr %9, align 8, !tbaa !8
  %104 = add nsw i64 %103, 999
  store i64 %104, ptr %9, align 8, !tbaa !8
  br label %105

105:                                              ; preds = %102, %101
  call void @llvm.lifetime.end.p0(i64 8, ptr %15) #11
  call void @llvm.lifetime.end.p0(i64 8, ptr %14) #11
  br label %114

106:                                              ; preds = %91, %83
  %107 = load i64, ptr %10, align 8, !tbaa !8
  %108 = mul nsw i64 %107, 1000
  %109 = load ptr, ptr %6, align 8, !tbaa !30
  %110 = getelementptr inbounds nuw %"struct.base::Time::Exploded", ptr %109, i32 0, i32 7
  %111 = load i32, ptr %110, align 4, !tbaa !54
  %112 = sext i32 %111 to i64
  %113 = add nsw i64 %108, %112
  store i64 %113, ptr %9, align 8, !tbaa !8
  br label %114

114:                                              ; preds = %106, %105
  call void @llvm.lifetime.start.p0(i64 8, ptr %16) #11
  %115 = load i64, ptr %9, align 8, !tbaa !8
  %116 = mul nsw i64 %115, 1000
  %117 = add nsw i64 %116, 11644473600000000
  call void @_ZN4base4TimeC2El(ptr noundef nonnull align 8 dereferenceable(8) %16, i64 noundef %117)
  call void @llvm.lifetime.start.p0(i64 32, ptr %17) #11
  %118 = load i8, ptr %5, align 1, !tbaa !28, !range !36, !noundef !37
  %119 = trunc i8 %118 to i1
  br i1 %119, label %121, label %120

120:                                              ; preds = %114
  call void @_ZNK4base4Time10UTCExplodeEPNS0_8ExplodedE(ptr noundef nonnull align 8 dereferenceable(8) %16, ptr noundef %17)
  br label %122

121:                                              ; preds = %114
  call void @_ZNK4base4Time12LocalExplodeEPNS0_8ExplodedE(ptr noundef nonnull align 8 dereferenceable(8) %16, ptr noundef %17)
  br label %122

122:                                              ; preds = %121, %120
  %123 = load ptr, ptr %6, align 8, !tbaa !30
  %124 = call noundef zeroext i1 @_ZN4base4Time20ExplodedMostlyEqualsERKNS0_8ExplodedES3_(ptr noundef nonnull align 4 dereferenceable(32) %17, ptr noundef nonnull align 4 dereferenceable(32) %123)
  br i1 %124, label %125, label %127

125:                                              ; preds = %122
  %126 = load ptr, ptr %7, align 8, !tbaa !26
  call void @llvm.memcpy.p0.p0.i64(ptr align 8 %126, ptr align 8 %16, i64 8, i1 false)
  store i1 true, ptr %4, align 1
  store i32 1, ptr %18, align 4
  br label %129

127:                                              ; preds = %122
  call void @llvm.lifetime.start.p0(i64 8, ptr %19) #11
  call void @_ZN4base4TimeC2El(ptr noundef nonnull align 8 dereferenceable(8) %19, i64 noundef 0)
  %128 = load ptr, ptr %7, align 8, !tbaa !26
  call void @llvm.memcpy.p0.p0.i64(ptr align 8 %128, ptr align 8 %19, i64 8, i1 false)
  call void @llvm.lifetime.end.p0(i64 8, ptr %19) #11
  store i1 false, ptr %4, align 1
  store i32 1, ptr %18, align 4
  br label %129

129:                                              ; preds = %127, %125
  call void @llvm.lifetime.end.p0(i64 32, ptr %17) #11
  call void @llvm.lifetime.end.p0(i64 8, ptr %16) #11
  call void @llvm.lifetime.end.p0(i64 56, ptr %11) #11
  call void @llvm.lifetime.end.p0(i64 8, ptr %10) #11
  call void @llvm.lifetime.end.p0(i64 8, ptr %9) #11
  call void @llvm.lifetime.end.p0(i64 56, ptr %8) #11
  %130 = load i1, ptr %4, align 1
  ret i1 %130
}