; Function Attrs: mustprogress uwtable
define noundef zeroext i1 @_ZN4base4Time12FromExplodedEbRKNS0_8ExplodedEPS0_(i1 noundef zeroext %0, ptr noundef nonnull align 4 dereferenceable(32) %1, ptr noundef writeonly captures(none) initializes((0, 8)) %2) local_unnamed_addr #0 align 2 {
  %4 = alloca %struct.tm, align 8
  %5 = alloca %struct.tm, align 8
  %6 = alloca %"class.base::Time", align 8
  %7 = alloca %"struct.base::Time::Exploded", align 4
  call void @llvm.lifetime.start.p0(i64 56, ptr nonnull %4) #13
  %8 = getelementptr inbounds nuw i8, ptr %1, i64 24
  %9 = load i32, ptr %8, align 4, !tbaa !30
  store i32 %9, ptr %4, align 8, !tbaa !29
  %10 = getelementptr inbounds nuw i8, ptr %1, i64 20
  %11 = load i32, ptr %10, align 4, !tbaa !28
  %12 = getelementptr inbounds nuw i8, ptr %4, i64 4
  store i32 %11, ptr %12, align 4, !tbaa !27
  %13 = getelementptr inbounds nuw i8, ptr %1, i64 16
  %14 = load i32, ptr %13, align 4, !tbaa !26
  %15 = getelementptr inbounds nuw i8, ptr %4, i64 8
  store i32 %14, ptr %15, align 8, !tbaa !25
  %16 = getelementptr inbounds nuw i8, ptr %1, i64 12
  %17 = load i32, ptr %16, align 4, !tbaa !24
  %18 = getelementptr inbounds nuw i8, ptr %4, i64 12
  store i32 %17, ptr %18, align 4, !tbaa !23
  %19 = getelementptr inbounds nuw i8, ptr %1, i64 4
  %20 = load i32, ptr %19, align 4, !tbaa !20
  %21 = add nsw i32 %20, -1
  %22 = getelementptr inbounds nuw i8, ptr %4, i64 16
  store i32 %21, ptr %22, align 8, !tbaa !19
  %23 = load i32, ptr %1, align 4, !tbaa !17
  %24 = add nsw i32 %23, -1900
  %25 = getelementptr inbounds nuw i8, ptr %4, i64 20
  store i32 %24, ptr %25, align 4, !tbaa !12
  %26 = getelementptr inbounds nuw i8, ptr %1, i64 8
  %27 = load i32, ptr %26, align 4, !tbaa !22
  %28 = getelementptr inbounds nuw i8, ptr %4, i64 24
  store i32 %27, ptr %28, align 8, !tbaa !21
  %29 = getelementptr inbounds nuw i8, ptr %4, i64 28
  store i32 0, ptr %29, align 4, !tbaa !32
  %30 = getelementptr inbounds nuw i8, ptr %4, i64 32
  store i32 -1, ptr %30, align 8, !tbaa !33
  %31 = getelementptr inbounds nuw i8, ptr %4, i64 40
  call void @llvm.memset.p0.i64(ptr noundef nonnull align 8 dereferenceable(16) %31, i8 0, i64 16, i1 false)
  call void @llvm.lifetime.start.p0(i64 56, ptr nonnull %5)
  call void @llvm.memcpy.p0.p0.i64(ptr noundef nonnull align 8 dereferenceable(56) %5, ptr noundef nonnull align 8 dereferenceable(56) %4, i64 56, i1 false), !tbaa.struct !34
  %32 = call fastcc noundef i64 @_ZN12_GLOBAL__N_121SysTimeFromTimeStructEP2tmb(ptr noundef %4, i1 noundef zeroext %0)
  %33 = icmp eq i64 %32, -1
  br i1 %33, label %34, label %.thread

34:                                               ; preds = %3
  call void @llvm.memcpy.p0.p0.i64(ptr noundef nonnull align 8 dereferenceable(56) %4, ptr noundef nonnull align 8 dereferenceable(56) %5, i64 56, i1 false), !tbaa.struct !34
  store i32 0, ptr %30, align 8, !tbaa !33
  %35 = call fastcc noundef i64 @_ZN12_GLOBAL__N_121SysTimeFromTimeStructEP2tmb(ptr noundef %4, i1 noundef zeroext %0)
  call void @llvm.memcpy.p0.p0.i64(ptr noundef nonnull align 8 dereferenceable(56) %4, ptr noundef nonnull align 8 dereferenceable(56) %5, i64 56, i1 false), !tbaa.struct !34
  store i32 1, ptr %30, align 8, !tbaa !33
  %36 = call fastcc noundef i64 @_ZN12_GLOBAL__N_121SysTimeFromTimeStructEP2tmb(ptr noundef %4, i1 noundef zeroext %0)
  %37 = icmp slt i64 %35, 0
  br i1 %37, label %41, label %38

38:                                               ; preds = %34
  %39 = icmp slt i64 %36, 0
  br i1 %39, label %.thread, label %40

40:                                               ; preds = %38
  %.sroa.speculated = call i64 @llvm.umin.i64(i64 %36, i64 %35)
  br label %.thread

41:                                               ; preds = %34
  %42 = icmp eq i64 %36, -1
  br i1 %42, label %43, label %.thread

43:                                               ; preds = %41
  %44 = load i32, ptr %1, align 4, !tbaa !17
  %45 = add i32 %44, -1971
  %or.cond = icmp ult i32 %45, -2
  br i1 %or.cond, label %46, label %.thread

46:                                               ; preds = %43
  %47 = icmp slt i32 %44, 1969
  %. = select i1 %47, i64 -2147483648000, i64 2147483647999
  br label %53

.thread:                                          ; preds = %38, %40, %3, %43, %41
  %.02434 = phi i64 [ -1, %43 ], [ %36, %41 ], [ %35, %38 ], [ %.sroa.speculated, %40 ], [ %32, %3 ]
  %48 = mul nsw i64 %.02434, 1000
  %49 = getelementptr inbounds nuw i8, ptr %1, i64 28
  %50 = load i32, ptr %49, align 4, !tbaa !31
  %51 = sext i32 %50 to i64
  %52 = add nsw i64 %48, %51
  br label %53

53:                                               ; preds = %.thread, %46
  %.1 = phi i64 [ %., %46 ], [ %52, %.thread ]
  call void @llvm.lifetime.start.p0(i64 8, ptr nonnull %6) #13
  %54 = mul nsw i64 %.1, 1000
  %55 = add nsw i64 %54, 11644473600000000
  store i64 %55, ptr %6, align 8, !tbaa !9
  call void @llvm.lifetime.start.p0(i64 32, ptr nonnull %7) #13
  call void @_ZNK4base4Time7ExplodeEbPNS0_8ExplodedE(ptr noundef nonnull align 8 dereferenceable(8) %6, i1 noundef zeroext %0, ptr noundef nonnull %7)
  %56 = call noundef zeroext i1 @_ZN4base4Time20ExplodedMostlyEqualsERKNS0_8ExplodedES3_(ptr noundef nonnull align 4 dereferenceable(32) %7, ptr noundef nonnull align 4 dereferenceable(32) %1)
  %.35 = select i1 %56, i64 %55, i64 0
  store i64 %.35, ptr %2, align 8
  call void @llvm.lifetime.end.p0(i64 32, ptr nonnull %7) #13
  call void @llvm.lifetime.end.p0(i64 8, ptr nonnull %6) #13
  call void @llvm.lifetime.end.p0(i64 56, ptr nonnull %5)
  call void @llvm.lifetime.end.p0(i64 56, ptr nonnull %4) #13
  ret i1 %56
}